target datalayout = "e-m:e-p270:32:32-p271:32:32-p272:64:64-i64:64-i128:128-f80:128-n8:16:32:64-S128"
target triple = "x86_64-pc-linux-gnu"

%"class.OpenImageIO::v3_1_0::softimage_pvt::PicFileHeader" = type { i32, float, [80 x i8], [4 x i8], i16, i16, float, i16, i16 }

; Function Attrs: alwaysinline mustprogress nounwind uwtable
define linkonce_odr hidden noundef float @_ZN11OpenImageIO6v3_1_07bitcastIfjEET_RKT0_(ptr noundef nonnull align 4 dereferenceable(4) %0) #11 comdat {
  %2 = alloca ptr, align 8
  %3 = alloca float, align 4
  store ptr %0, ptr %2, align 8, !tbaa !8
  call void @llvm.lifetime.start.p0(i64 4, ptr %3) #3
  %4 = load ptr, ptr %2, align 8, !tbaa !8
  call void @llvm.memcpy.p0.p0.i64(ptr align 1 %3, ptr align 4 %4, i64 4, i1 false)
  %5 = load float, ptr %3, align 4, !tbaa !21
  call void @llvm.lifetime.end.p0(i64 4, ptr %3) #3
  ret float %5
}

; Function Attrs: alwaysinline mustprogress nounwind uwtable
define linkonce_odr hidden noundef i32 @_ZN11OpenImageIO6v3_1_07bitcastIjfEET_RKT0_(ptr noundef nonnull align 4 dereferenceable(4) %0) #11 comdat {
  %2 = alloca ptr, align 8
  %3 = alloca i32, align 4
  store ptr %0, ptr %2, align 8, !tbaa !19
  call void @llvm.lifetime.start.p0(i64 4, ptr %3) #3
  %4 = load ptr, ptr %2, align 8, !tbaa !19
  call void @llvm.memcpy.p0.p0.i64(ptr align 1 %3, ptr align 4 %4, i64 4, i1 false)
  %5 = load i32, ptr %3, align 4, !tbaa !10
  call void @llvm.lifetime.end.p0(i64 4, ptr %3) #3
  ret i32 %5
}

; Function Attrs: inlinehint mustprogress nounwind uwtable
define linkonce_odr hidden noundef float @_ZN11OpenImageIO6v3_1_08byteswapIfEET_S2_(float noundef %0) #9 comdat {
  %2 = alloca float, align 4
  %3 = alloca i32, align 4
  store float %0, ptr %2, align 4, !tbaa !21
  call void @llvm.lifetime.start.p0(i64 4, ptr %3) #3
  %4 = call noundef i32 @_ZN11OpenImageIO6v3_1_07bitcastIjfEET_RKT0_(ptr noundef nonnull align 4 dereferenceable(4) %2) #3
  %5 = call noundef i32 @_ZN11OpenImageIO6v3_1_08byteswapIjEET_S2_(i32 noundef %4)
  store i32 %5, ptr %3, align 4, !tbaa !10
  %6 = call noundef float @_ZN11OpenImageIO6v3_1_07bitcastIfjEET_RKT0_(ptr noundef nonnull align 4 dereferenceable(4) %3) #3
  call void @llvm.lifetime.end.p0(i64 4, ptr %3) #3
  ret float %6
}

; Function Attrs: inlinehint mustprogress nounwind uwtable
define linkonce_odr hidden noundef zeroext i16 @_ZN11OpenImageIO6v3_1_08byteswapItEET_S2_(i16 noundef zeroext %0) #9 comdat {
  %2 = alloca i16, align 2
  store i16 %0, ptr %2, align 2, !tbaa !16
  %3 = load i16, ptr %2, align 2, !tbaa !16
  %4 = call i16 @llvm.bswap.i16(i16 %3)
  ret i16 %4
}

; Function Attrs: inlinehint mustprogress nounwind uwtable
define linkonce_odr hidden noundef i32 @_ZN11OpenImageIO6v3_1_08byteswapIjEET_S2_(i32 noundef %0) #9 comdat {
  %2 = alloca i32, align 4
  store i32 %0, ptr %2, align 4, !tbaa !10
  %3 = load i32, ptr %2, align 4, !tbaa !10
  %4 = call i32 @llvm.bswap.i32(i32 %3)
  ret i32 %4
}

; Function Attrs: inlinehint mustprogress uwtable
define linkonce_odr hidden void @_ZN11OpenImageIO6v3_1_011swap_endianIfEEvPT_i(ptr noundef %0, i32 noundef %1) #7 comdat {
  %3 = alloca ptr, align 8
  %4 = alloca i32, align 4
  %5 = alloca i32, align 4
  store ptr %0, ptr %3, align 8, !tbaa !19
  store i32 %1, ptr %4, align 4, !tbaa !10
  call void @llvm.lifetime.start.p0(i64 4, ptr %5) #3
  store i32 0, ptr %5, align 4, !tbaa !10
  br label %6

6:                                                ; preds = %22, %2
  %7 = load i32, ptr %5, align 4, !tbaa !10
  %8 = load i32, ptr %4, align 4, !tbaa !10
  %9 = icmp slt i32 %7, %8
  br i1 %9, label %11, label %10

10:                                               ; preds = %6
  call void @llvm.lifetime.end.p0(i64 4, ptr %5) #3
  br label %25

11:                                               ; preds = %6
  %12 = load ptr, ptr %3, align 8, !tbaa !19
  %13 = load i32, ptr %5, align 4, !tbaa !10
  %14 = sext i32 %13 to i64
  %15 = getelementptr inbounds float, ptr %12, i64 %14
  %16 = load float, ptr %15, align 4, !tbaa !21
  %17 = call noundef float @_ZN11OpenImageIO6v3_1_08byteswapIfEET_S2_(float noundef %16)
  %18 = load ptr, ptr %3, align 8, !tbaa !19
  %19 = load i32, ptr %5, align 4, !tbaa !10
  %20 = sext i32 %19 to i64
  %21 = getelementptr inbounds float, ptr %18, i64 %20
  store float %17, ptr %21, align 4, !tbaa !21
  br label %22

22:                                               ; preds = %11
  %23 = load i32, ptr %5, align 4, !tbaa !10
  %24 = add nsw i32 %23, 1
  store i32 %24, ptr %5, align 4, !tbaa !10
  br label %6, !llvm.loop !23

25:                                               ; preds = %10
  ret void
}

; Function Attrs: inlinehint mustprogress uwtable
define linkonce_odr hidden void @_ZN11OpenImageIO6v3_1_011swap_endianItEEvPT_i(ptr noundef %0, i32 noundef %1) #7 comdat {
  %3 = alloca ptr, align 8
  %4 = alloca i32, align 4
  %5 = alloca i32, align 4
  store ptr %0, ptr %3, align 8, !tbaa !14
  store i32 %1, ptr %4, align 4, !tbaa !10
  call void @llvm.lifetime.start.p0(i64 4, ptr %5) #3
  store i32 0, ptr %5, align 4, !tbaa !10
  br label %6

6:                                                ; preds = %22, %2
  %7 = load i32, ptr %5, align 4, !tbaa !10
  %8 = load i32, ptr %4, align 4, !tbaa !10
  %9 = icmp slt i32 %7, %8
  br i1 %9, label %11, label %10

10:                                               ; preds = %6
  call void @llvm.lifetime.end.p0(i64 4, ptr %5) #3
  br label %25

11:                                               ; preds = %6
  %12 = load ptr, ptr %3, align 8, !tbaa !14
  %13 = load i32, ptr %5, align 4, !tbaa !10
  %14 = sext i32 %13 to i64
  %15 = getelementptr inbounds i16, ptr %12, i64 %14
  %16 = load i16, ptr %15, align 2, !tbaa !16
  %17 = call noundef zeroext i16 @_ZN11OpenImageIO6v3_1_08byteswapItEET_S2_(i16 noundef zeroext %16)
  %18 = load ptr, ptr %3, align 8, !tbaa !14
  %19 = load i32, ptr %5, align 4, !tbaa !10
  %20 = sext i32 %19 to i64
  %21 = getelementptr inbounds i16, ptr %18, i64 %20
  store i16 %17, ptr %21, align 2, !tbaa !16
  br label %22

22:                                               ; preds = %11
  %23 = load i32, ptr %5, align 4, !tbaa !10
  %24 = add nsw i32 %23, 1
  store i32 %24, ptr %5, align 4, !tbaa !10
  br label %6, !llvm.loop !18

25:                                               ; preds = %10
  ret void
}

; Function Attrs: inlinehint mustprogress uwtable
define linkonce_odr hidden void @_ZN11OpenImageIO6v3_1_011swap_endianIjEEvPT_i(ptr noundef %0, i32 noundef %1) #7 comdat {
  %3 = alloca ptr, align 8
  %4 = alloca i32, align 4
  %5 = alloca i32, align 4
  store ptr %0, ptr %3, align 8, !tbaa !8
  store i32 %1, ptr %4, align 4, !tbaa !10
  call void @llvm.lifetime.start.p0(i64 4, ptr %5) #3
  store i32 0, ptr %5, align 4, !tbaa !10
  br label %6

6:                                                ; preds = %22, %2
  %7 = load i32, ptr %5, align 4, !tbaa !10
  %8 = load i32, ptr %4, align 4, !tbaa !10
  %9 = icmp slt i32 %7, %8
  br i1 %9, label %11, label %10

10:                                               ; preds = %6
  call void @llvm.lifetime.end.p0(i64 4, ptr %5) #3
  br label %25

11:                                               ; preds = %6
  %12 = load ptr, ptr %3, align 8, !tbaa !8
  %13 = load i32, ptr %5, align 4, !tbaa !10
  %14 = sext i32 %13 to i64
  %15 = getelementptr inbounds i32, ptr %12, i64 %14
  %16 = load i32, ptr %15, align 4, !tbaa !10
  %17 = call noundef i32 @_ZN11OpenImageIO6v3_1_08byteswapIjEET_S2_(i32 noundef %16)
  %18 = load ptr, ptr %3, align 8, !tbaa !8
  %19 = load i32, ptr %5, align 4, !tbaa !10
  %20 = sext i32 %19 to i64
  %21 = getelementptr inbounds i32, ptr %18, i64 %20
  store i32 %17, ptr %21, align 4, !tbaa !10
  br label %22

22:                                               ; preds = %11
  %23 = load i32, ptr %5, align 4, !tbaa !10
  %24 = add nsw i32 %23, 1
  store i32 %24, ptr %5, align 4, !tbaa !10
  br label %6, !llvm.loop !12

25:                                               ; preds = %10
  ret void
}

; Function Attrs: mustprogress uwtable
define hidden void @_ZN11OpenImageIO6v3_1_013softimage_pvt13PicFileHeader11swap_endianEv(ptr noundef nonnull align 4 dereferenceable(104) %0) #6 align 2 {
  %2 = alloca ptr, align 8
  store ptr %0, ptr %2, align 8, !tbaa !3
  %3 = load ptr, ptr %2, align 8
  %4 = getelementptr inbounds nuw %"class.OpenImageIO::v3_1_0::softimage_pvt::PicFileHeader", ptr %3, i32 0, i32 0
  call void @_ZN11OpenImageIO6v3_1_011swap_endianIjEEvPT_i(ptr noundef %4, i32 noundef 1)
  %5 = getelementptr inbounds nuw %"class.OpenImageIO::v3_1_0::softimage_pvt::PicFileHeader", ptr %3, i32 0, i32 4
  call void @_ZN11OpenImageIO6v3_1_011swap_endianItEEvPT_i(ptr noundef %5, i32 noundef 1)
  %6 = getelementptr inbounds nuw %"class.OpenImageIO::v3_1_0::softimage_pvt::PicFileHeader", ptr %3, i32 0, i32 5
  call void @_ZN11OpenImageIO6v3_1_011swap_endianItEEvPT_i(ptr noundef %6, i32 noundef 1)
  %7 = getelementptr inbounds nuw %"class.OpenImageIO::v3_1_0::softimage_pvt::PicFileHeader", ptr %3, i32 0, i32 1
  call void @_ZN11OpenImageIO6v3_1_011swap_endianIfEEvPT_i(ptr noundef %7, i32 noundef 1)
  %8 = getelementptr inbounds nuw %"class.OpenImageIO::v3_1_0::softimage_pvt::PicFileHeader", ptr %3, i32 0, i32 6
  call void @_ZN11OpenImageIO6v3_1_011swap_endianIfEEvPT_i(ptr noundef %8, i32 noundef 1)
  %9 = getelementptr inbounds nuw %"class.OpenImageIO::v3_1_0::softimage_pvt::PicFileHeader", ptr %3, i32 0, i32 7
  call void @_ZN11OpenImageIO6v3_1_011swap_endianItEEvPT_i(ptr noundef %9, i32 noundef 1)
  ret void
}

; Function Attrs: mustprogress uwtable
define hidden noundef zeroext i1 @_ZN11OpenImageIO6v3_1_013softimage_pvt13PicFileHeader11read_headerEP8_IO_FILE(ptr noundef nonnull align 4 dereferenceable(104) %0, ptr noundef %1) #6 align 2 {
  %3 = alloca ptr, align 8
  %4 = alloca ptr, align 8
  %5 = alloca i32, align 4
  store ptr %0, ptr %3, align 8, !tbaa !3
  store ptr %1, ptr %4, align 8, !tbaa !24
  %6 = load ptr, ptr %3, align 8
  call void @llvm.lifetime.start.p0(i64 4, ptr %5) #3
  store i32 0, ptr %5, align 4, !tbaa !10
  %7 = load ptr, ptr %4, align 8, !tbaa !24
  %8 = call i64 @fread(ptr noundef %6, i64 noundef 1, i64 noundef 104, ptr noundef %7)
  %9 = load i32, ptr %5, align 4, !tbaa !10
  %10 = sext i32 %9 to i64
  %11 = add i64 %10, %8
  %12 = trunc i64 %11 to i32
  store i32 %12, ptr %5, align 4, !tbaa !10
  call void @_ZN11OpenImageIO6v3_1_013softimage_pvt13PicFileHeader11swap_endianEv(ptr noundef nonnull align 4 dereferenceable(104) %6)
  %13 = load i32, ptr %5, align 4, !tbaa !10
  %14 = sext i32 %13 to i64
  %15 = icmp eq i64 %14, 104
  call void @llvm.lifetime.end.p0(i64 4, ptr %5) #3
  ret i1 %15
}