; Function Attrs: mustprogress nofree nounwind uwtable
define hidden noundef zeroext i1 @_ZN11OpenImageIO6v3_1_013softimage_pvt13PicFileHeader11read_headerEP8_IO_FILE(ptr noundef nonnull align 4 captures(none) dereferenceable(104) %0, ptr noundef captures(none) %1) local_unnamed_addr #6 align 2 {
  %3 = tail call i64 @fread(ptr noundef nonnull %0, i64 noundef 1, i64 noundef 104, ptr noundef %1)
  %4 = load i32, ptr %0, align 4, !tbaa !3
  %5 = tail call noundef i32 @llvm.bswap.i32(i32 %4)
  store i32 %5, ptr %0, align 4, !tbaa !3
  %6 = getelementptr inbounds nuw i8, ptr %0, i64 92
  %7 = load i16, ptr %6, align 4, !tbaa !7
  %8 = tail call noundef i16 @llvm.bswap.i16(i16 %7)
  store i16 %8, ptr %6, align 4, !tbaa !7
  %9 = getelementptr inbounds nuw i8, ptr %0, i64 94
  %10 = load i16, ptr %9, align 2, !tbaa !7
  %11 = tail call noundef i16 @llvm.bswap.i16(i16 %10)
  store i16 %11, ptr %9, align 2, !tbaa !7
  %12 = getelementptr inbounds nuw i8, ptr %0, i64 4
  %13 = load i32, ptr %12, align 4, !tbaa !9
  %14 = tail call noundef i32 @llvm.bswap.i32(i32 %13)
  store i32 %14, ptr %12, align 4, !tbaa !9
  %15 = getelementptr inbounds nuw i8, ptr %0, i64 96
  %16 = load i32, ptr %15, align 4, !tbaa !9
  %17 = tail call noundef i32 @llvm.bswap.i32(i32 %16)
  store i32 %17, ptr %15, align 4, !tbaa !9
  %18 = getelementptr inbounds nuw i8, ptr %0, i64 100
  %19 = load i16, ptr %18, align 4, !tbaa !7
  %20 = tail call noundef i16 @llvm.bswap.i16(i16 %19)
  store i16 %20, ptr %18, align 4, !tbaa !7
  %sext.mask = and i64 %3, 4294967295
  %21 = icmp eq i64 %sext.mask, 104
  ret i1 %21
}